CCS PCM C Compiler, Version 5.074, 32906               01-¡.¾.-18 16:52

               Filename:   C:\Users\DONUT\Desktop\EMbedLab\Lab4\4.1\4.1.lst

               ROM used:   141 words (2%)
                           Largest free fragment is 2048
               RAM used:   14 (4%) at main() level
                           14 (4%) worst case
               Stack used: 1 locations (0 in main + 1 for interrupts)
               Stack size: 8

*
0000:  MOVLW  00
0001:  MOVWF  0A
0002:  GOTO   05B
0003:  NOP
0004:  MOVWF  7F
0005:  SWAPF  03,W
0006:  CLRF   03
0007:  MOVWF  21
0008:  MOVF   0A,W
0009:  MOVWF  20
000A:  CLRF   0A
000B:  MOVF   04,W
000C:  MOVWF  22
000D:  MOVF   77,W
000E:  MOVWF  23
000F:  MOVF   78,W
0010:  MOVWF  24
0011:  MOVF   79,W
0012:  MOVWF  25
0013:  MOVF   7A,W
0014:  MOVWF  26
0015:  BCF    03.7
0016:  BCF    03.5
0017:  MOVLW  8C
0018:  MOVWF  04
0019:  BTFSS  00.0
001A:  GOTO   01D
001B:  BTFSC  0C.0
001C:  GOTO   02E
001D:  MOVF   22,W
001E:  MOVWF  04
001F:  MOVF   23,W
0020:  MOVWF  77
0021:  MOVF   24,W
0022:  MOVWF  78
0023:  MOVF   25,W
0024:  MOVWF  79
0025:  MOVF   26,W
0026:  MOVWF  7A
0027:  MOVF   20,W
0028:  MOVWF  0A
0029:  SWAPF  21,W
002A:  MOVWF  03
002B:  SWAPF  7F,F
002C:  SWAPF  7F,W
002D:  RETFIE
002E:  BCF    0A.3
002F:  BCF    0A.4
0030:  GOTO   031
.................... #include <16F886.h> 
.................... //////////// Standard Header file for the PIC16F886 device //////////////// 
.................... /////////////////////////////////////////////////////////////////////////// 
.................... ////        (C) Copyright 1996, 2014 Custom Computer Services          //// 
.................... //// This source code may only be used by licensed users of the CCS C  //// 
.................... //// compiler.  This source code may only be distributed to other      //// 
.................... //// licensed users of the CCS C compiler.  No other use, reproduction //// 
.................... //// or distribution is permitted without written permission.          //// 
.................... //// Derivative programs created using this software in object code    //// 
.................... //// form are not restricted in any way.                               //// 
.................... /////////////////////////////////////////////////////////////////////////// 
.................... #device PIC16F886 
....................  
.................... #list 
....................  
.................... #device ADC=10 *=16 
....................  
.................... #FUSES NOWDT                    //No Watch Dog Timer 
.................... #FUSES PUT                      //Power Up Timer 
.................... #FUSES NOMCLR                   //Master Clear pin not enabled 
.................... #FUSES NOPROTECT                //Code not protected from reading 
.................... #FUSES NOCPD                    //No EE protection 
.................... #FUSES BROWNOUT                 //Brownout reset 
.................... #FUSES IESO                     //Internal External Switch Over mode enabled 
.................... #FUSES FCMEN                    //Fail-safe clock monitor enabled 
.................... #FUSES NOLVP                    //No low voltage prgming, B3(PIC16) or B5(PIC18) used for I/O 
.................... #FUSES NODEBUG                  //No Debug mode for ICD 
.................... #FUSES NOWRT                    //Program memory not write protected 
.................... #FUSES BORV40                   //Brownout reset at 4.0V 
.................... #FUSES RESERVED                 //Used to set the reserved FUSE bits 
.................... #FUSES INTRC_IO  
....................  
.................... #use delay(clock=8M) 
....................  
.................... #use rs232(baud=9600,parity=N,xmit=PIN_C6,rcv=PIN_C7,bits=8) 
....................  
.................... #define RUN_BUTTON   PIN_B7 
....................  
.................... int counter=0; 
.................... int1 isHigh=0;  // a flag to check the status of the output pulse pin 
....................  
.................... #INT_TIMER1 
.................... void timer1_isr() { 
....................    set_timer1(-59464); // re-set the timer1 counter to maintain a stable period 
0031:  CLRF   0E
0032:  MOVLW  17
0033:  MOVWF  0F
0034:  MOVLW  B8
0035:  MOVWF  0E
....................       if (isHigh) { 
0036:  BTFSS  28.0
0037:  GOTO   048
....................       output_toggle(PIN_B6); 
0038:  BSF    03.5
0039:  BCF    06.6
003A:  MOVLW  40
003B:  BCF    03.5
003C:  XORWF  06,F
....................       isHigh = !isHigh; 
003D:  MOVLW  01
003E:  XORWF  28,F
....................       printf("1\n"); 
003F:  MOVLW  31
0040:  BTFSS  0C.4
0041:  GOTO   040
0042:  MOVWF  19
0043:  MOVLW  0A
0044:  BTFSS  0C.4
0045:  GOTO   044
0046:  MOVWF  19
....................       } 
0047:  GOTO   057
....................       else {output_toggle(PIN_B6);  
0048:  BSF    03.5
0049:  BCF    06.6
004A:  MOVLW  40
004B:  BCF    03.5
004C:  XORWF  06,F
....................       isHigh = !isHigh; 
004D:  MOVLW  01
004E:  XORWF  28,F
....................       printf("2\n"); 
004F:  MOVLW  32
0050:  BTFSS  0C.4
0051:  GOTO   050
0052:  MOVWF  19
0053:  MOVLW  0A
0054:  BTFSS  0C.4
0055:  GOTO   054
0056:  MOVWF  19
....................       } 
0057:  BCF    0C.0
0058:  BCF    0A.3
0059:  BCF    0A.4
005A:  GOTO   01D
.................... } 
....................  
.................... void main() 
005B:  MOVF   03,W
005C:  ANDLW  1F
005D:  MOVWF  03
005E:  MOVLW  71
005F:  BSF    03.5
0060:  MOVWF  0F
0061:  CLRF   10
0062:  MOVF   0F,W
0063:  BSF    03.6
0064:  BCF    07.3
0065:  MOVLW  0C
0066:  BCF    03.6
0067:  MOVWF  19
0068:  MOVLW  A2
0069:  MOVWF  18
006A:  MOVLW  90
006B:  BCF    03.5
006C:  MOVWF  18
006D:  CLRF   27
006E:  BCF    28.0
006F:  BSF    03.5
0070:  BSF    03.6
0071:  MOVF   09,W
0072:  ANDLW  C0
0073:  MOVWF  09
0074:  BCF    03.6
0075:  BCF    1F.4
0076:  BCF    1F.5
0077:  MOVLW  00
0078:  BSF    03.6
0079:  MOVWF  08
007A:  BCF    03.5
007B:  CLRF   07
007C:  CLRF   08
007D:  CLRF   09
007E:  BCF    03.7
.................... { 
....................    //////////////////////////////////////////////////////////////// 
....................    // set timer1 
....................    // 
....................    // interrupt period = (1/8)*4*8*(65536-3036) us = 100.0 ms 
....................    //////////////////////////////////////////////////////////////// 
....................    setup_timer_1(T1_INTERNAL | T1_DIV_BY_8); 
007F:  MOVLW  35
0080:  BCF    03.6
0081:  MOVWF  10
....................    set_timer1(-59464); 
0082:  CLRF   0E
0083:  MOVLW  17
0084:  MOVWF  0F
0085:  MOVLW  B8
0086:  MOVWF  0E
....................    enable_interrupts(INT_TIMER1); 
0087:  BSF    03.5
0088:  BSF    0C.0
....................    enable_interrupts(GLOBAL); 
0089:  MOVLW  C0
008A:  BCF    03.5
008B:  IORWF  0B,F
.................... } 
....................  
008C:  SLEEP

Configuration Fuses:
   Word  1: 2FC4   INTRC_IO NOWDT PUT NOMCLR NOPROTECT NOCPD BROWNOUT IESO FCMEN NOLVP NODEBUG
   Word  2: 3FFF   BORV40 NOWRT
